target datalayout = "e-m:e-p270:32:32-p271:32:32-p272:64:64-i64:64-i128:128-f80:128-n8:16:32:64-S128"
target triple = "x86_64-pc-linux-gnu"

%struct.ident_t = type { i32, i32, i32, i32, ptr }
%"class.ncnn::Mat" = type { ptr, ptr, i64, i32, ptr, i32, i32, i32, i32, i32, i64 }

@1 = private unnamed_addr constant %struct.ident_t { i32 0, i32 514, i32 0, i32 22, ptr @0 }, align 8

; Function Attrs: alwaysinline mustprogress nounwind uwtable
define internal void @_ZN4ncnnL8fastFreeEPv(ptr noundef %0) #5 {
  %2 = alloca ptr, align 8
  store ptr %0, ptr %2, align 8, !tbaa !86
  %3 = load ptr, ptr %2, align 8, !tbaa !86
  %4 = icmp ne ptr %3, null
  br i1 %4, label %5, label %7

5:                                                ; preds = %1
  %6 = load ptr, ptr %2, align 8, !tbaa !86
  call void @free(ptr noundef %6) #8
  br label %7

7:                                                ; preds = %5, %1
  ret void
}

; Function Attrs: alwaysinline mustprogress nounwind uwtable
define internal noundef i64 @_ZN4ncnnL9alignSizeEmi(i64 noundef %0, i32 noundef %1) #5 {
  %3 = alloca i64, align 8
  %4 = alloca i32, align 4
  store i64 %0, ptr %3, align 8, !tbaa !23
  store i32 %1, ptr %4, align 4, !tbaa !19
  %5 = load i64, ptr %3, align 8, !tbaa !23
  %6 = load i32, ptr %4, align 4, !tbaa !19
  %7 = sext i32 %6 to i64
  %8 = add i64 %5, %7
  %9 = sub i64 %8, 1
  %10 = load i32, ptr %4, align 4, !tbaa !19
  %11 = sub nsw i32 0, %10
  %12 = sext i32 %11 to i64
  %13 = and i64 %9, %12
  ret i64 %13
}

; Function Attrs: alwaysinline mustprogress uwtable
define linkonce_odr hidden void @_ZN4ncnn3Mat7releaseEv(ptr noundef nonnull align 8 dereferenceable(72) %0) #6 comdat align 2 {
  %2 = alloca ptr, align 8
  %3 = alloca i32, align 4
  %4 = alloca i32, align 4
  store ptr %0, ptr %2, align 8, !tbaa !9
  %5 = load ptr, ptr %2, align 8
  %6 = getelementptr inbounds nuw %"class.ncnn::Mat", ptr %5, i32 0, i32 1
  %7 = load ptr, ptr %6, align 8, !tbaa !55
  %8 = icmp ne ptr %7, null
  br i1 %8, label %9, label %32

9:                                                ; preds = %1
  %10 = getelementptr inbounds nuw %"class.ncnn::Mat", ptr %5, i32 0, i32 1
  %11 = load ptr, ptr %10, align 8, !tbaa !55
  store i32 -1, ptr %3, align 4, !tbaa !19
  %12 = load i32, ptr %3, align 4
  %13 = atomicrmw add ptr %11, i32 %12 acq_rel, align 4
  store i32 %13, ptr %4, align 4
  %14 = load i32, ptr %4, align 4, !tbaa !19
  %15 = icmp eq i32 %14, 1
  br i1 %15, label %16, label %32

16:                                               ; preds = %9
  %17 = getelementptr inbounds nuw %"class.ncnn::Mat", ptr %5, i32 0, i32 4
  %18 = load ptr, ptr %17, align 8, !tbaa !57
  %19 = icmp ne ptr %18, null
  br i1 %19, label %20, label %28

20:                                               ; preds = %16
  %21 = getelementptr inbounds nuw %"class.ncnn::Mat", ptr %5, i32 0, i32 4
  %22 = load ptr, ptr %21, align 8, !tbaa !57
  %23 = getelementptr inbounds nuw %"class.ncnn::Mat", ptr %5, i32 0, i32 0
  %24 = load ptr, ptr %23, align 8, !tbaa !54
  %25 = load ptr, ptr %22, align 8, !tbaa !87
  %26 = getelementptr inbounds ptr, ptr %25, i64 3
  %27 = load ptr, ptr %26, align 8
  call void %27(ptr noundef nonnull align 8 dereferenceable(8) %22, ptr noundef %24)
  br label %31

28:                                               ; preds = %16
  %29 = getelementptr inbounds nuw %"class.ncnn::Mat", ptr %5, i32 0, i32 0
  %30 = load ptr, ptr %29, align 8, !tbaa !54
  call void @_ZN4ncnnL8fastFreeEPv(ptr noundef %30)
  br label %31

31:                                               ; preds = %28, %20
  br label %32

32:                                               ; preds = %31, %9, %1
  %33 = getelementptr inbounds nuw %"class.ncnn::Mat", ptr %5, i32 0, i32 0
  store ptr null, ptr %33, align 8, !tbaa !54
  %34 = getelementptr inbounds nuw %"class.ncnn::Mat", ptr %5, i32 0, i32 2
  store i64 0, ptr %34, align 8, !tbaa !22
  %35 = getelementptr inbounds nuw %"class.ncnn::Mat", ptr %5, i32 0, i32 3
  store i32 0, ptr %35, align 8, !tbaa !56
  %36 = getelementptr inbounds nuw %"class.ncnn::Mat", ptr %5, i32 0, i32 5
  store i32 0, ptr %36, align 8, !tbaa !58
  %37 = getelementptr inbounds nuw %"class.ncnn::Mat", ptr %5, i32 0, i32 6
  store i32 0, ptr %37, align 4, !tbaa !13
  %38 = getelementptr inbounds nuw %"class.ncnn::Mat", ptr %5, i32 0, i32 7
  store i32 0, ptr %38, align 8, !tbaa !20
  %39 = getelementptr inbounds nuw %"class.ncnn::Mat", ptr %5, i32 0, i32 8
  store i32 0, ptr %39, align 4, !tbaa !59
  %40 = getelementptr inbounds nuw %"class.ncnn::Mat", ptr %5, i32 0, i32 9
  store i32 0, ptr %40, align 8, !tbaa !21
  %41 = getelementptr inbounds nuw %"class.ncnn::Mat", ptr %5, i32 0, i32 10
  store i64 0, ptr %41, align 8, !tbaa !60
  %42 = getelementptr inbounds nuw %"class.ncnn::Mat", ptr %5, i32 0, i32 1
  store ptr null, ptr %42, align 8, !tbaa !55
  ret void
}

; Function Attrs: alwaysinline mustprogress uwtable
define linkonce_odr hidden void @_ZN4ncnn3MatC2EiiiPvmiPNS_9AllocatorE(ptr noundef nonnull align 8 dereferenceable(72) %0, i32 noundef %1, i32 noundef %2, i32 noundef %3, ptr noundef %4, i64 noundef %5, i32 noundef %6, ptr noundef %7) unnamed_addr #6 comdat align 2 {
  %9 = alloca ptr, align 8
  %10 = alloca i32, align 4
  %11 = alloca i32, align 4
  %12 = alloca i32, align 4
  %13 = alloca ptr, align 8
  %14 = alloca i64, align 8
  %15 = alloca i32, align 4
  %16 = alloca ptr, align 8
  store ptr %0, ptr %9, align 8, !tbaa !9
  store i32 %1, ptr %10, align 4, !tbaa !19
  store i32 %2, ptr %11, align 4, !tbaa !19
  store i32 %3, ptr %12, align 4, !tbaa !19
  store ptr %4, ptr %13, align 8, !tbaa !86
  store i64 %5, ptr %14, align 8, !tbaa !23
  store i32 %6, ptr %15, align 4, !tbaa !19
  store ptr %7, ptr %16, align 8, !tbaa !48
  %17 = load ptr, ptr %9, align 8
  %18 = getelementptr inbounds nuw %"class.ncnn::Mat", ptr %17, i32 0, i32 0
  %19 = load ptr, ptr %13, align 8, !tbaa !86
  store ptr %19, ptr %18, align 8, !tbaa !54
  %20 = getelementptr inbounds nuw %"class.ncnn::Mat", ptr %17, i32 0, i32 1
  store ptr null, ptr %20, align 8, !tbaa !55
  %21 = getelementptr inbounds nuw %"class.ncnn::Mat", ptr %17, i32 0, i32 2
  %22 = load i64, ptr %14, align 8, !tbaa !23
  store i64 %22, ptr %21, align 8, !tbaa !22
  %23 = getelementptr inbounds nuw %"class.ncnn::Mat", ptr %17, i32 0, i32 3
  %24 = load i32, ptr %15, align 4, !tbaa !19
  store i32 %24, ptr %23, align 8, !tbaa !56
  %25 = getelementptr inbounds nuw %"class.ncnn::Mat", ptr %17, i32 0, i32 4
  %26 = load ptr, ptr %16, align 8, !tbaa !48
  store ptr %26, ptr %25, align 8, !tbaa !57
  %27 = getelementptr inbounds nuw %"class.ncnn::Mat", ptr %17, i32 0, i32 5
  store i32 3, ptr %27, align 8, !tbaa !58
  %28 = getelementptr inbounds nuw %"class.ncnn::Mat", ptr %17, i32 0, i32 6
  %29 = load i32, ptr %10, align 4, !tbaa !19
  store i32 %29, ptr %28, align 4, !tbaa !13
  %30 = getelementptr inbounds nuw %"class.ncnn::Mat", ptr %17, i32 0, i32 7
  %31 = load i32, ptr %11, align 4, !tbaa !19
  store i32 %31, ptr %30, align 8, !tbaa !20
  %32 = getelementptr inbounds nuw %"class.ncnn::Mat", ptr %17, i32 0, i32 8
  store i32 1, ptr %32, align 4, !tbaa !59
  %33 = getelementptr inbounds nuw %"class.ncnn::Mat", ptr %17, i32 0, i32 9
  %34 = load i32, ptr %12, align 4, !tbaa !19
  store i32 %34, ptr %33, align 8, !tbaa !21
  %35 = getelementptr inbounds nuw %"class.ncnn::Mat", ptr %17, i32 0, i32 6
  %36 = load i32, ptr %35, align 4, !tbaa !13
  %37 = sext i32 %36 to i64
  %38 = getelementptr inbounds nuw %"class.ncnn::Mat", ptr %17, i32 0, i32 7
  %39 = load i32, ptr %38, align 8, !tbaa !20
  %40 = sext i32 %39 to i64
  %41 = mul i64 %37, %40
  %42 = getelementptr inbounds nuw %"class.ncnn::Mat", ptr %17, i32 0, i32 2
  %43 = load i64, ptr %42, align 8, !tbaa !22
  %44 = mul i64 %41, %43
  %45 = call noundef i64 @_ZN4ncnnL9alignSizeEmi(i64 noundef %44, i32 noundef 16)
  %46 = getelementptr inbounds nuw %"class.ncnn::Mat", ptr %17, i32 0, i32 2
  %47 = load i64, ptr %46, align 8, !tbaa !22
  %48 = udiv i64 %45, %47
  %49 = getelementptr inbounds nuw %"class.ncnn::Mat", ptr %17, i32 0, i32 10
  store i64 %48, ptr %49, align 8, !tbaa !60
  ret void
}

; Function Attrs: noinline noreturn nounwind uwtable
define linkonce_odr hidden void @__clang_call_terminate(ptr noundef %0) #9 comdat {
  %2 = call ptr @__cxa_begin_catch(ptr %0) #8
  call void @_ZSt9terminatev() #19
  unreachable
}

; Function Attrs: alwaysinline mustprogress nounwind uwtable
define linkonce_odr hidden noundef ptr @_ZN4ncnn3MatcvPT_IfEEv(ptr noundef nonnull align 8 dereferenceable(72) %0) #5 comdat align 2 {
  %2 = alloca ptr, align 8
  store ptr %0, ptr %2, align 8, !tbaa !9
  %3 = load ptr, ptr %2, align 8
  %4 = getelementptr inbounds nuw %"class.ncnn::Mat", ptr %3, i32 0, i32 0
  %5 = load ptr, ptr %4, align 8, !tbaa !54
  ret ptr %5
}

; Function Attrs: alwaysinline mustprogress nounwind uwtable
define linkonce_odr hidden void @_ZN4ncnn3MatD2Ev(ptr noundef nonnull align 8 dereferenceable(72) %0) unnamed_addr #5 comdat align 2 personality ptr @__gxx_personality_v0 {
  %2 = alloca ptr, align 8
  store ptr %0, ptr %2, align 8, !tbaa !9
  %3 = load ptr, ptr %2, align 8
  invoke void @_ZN4ncnn3Mat7releaseEv(ptr noundef nonnull align 8 dereferenceable(72) %3)
          to label %4 unwind label %5

4:                                                ; preds = %1
  ret void

5:                                                ; preds = %1
  %6 = landingpad { ptr, i32 }
          catch ptr null
  %7 = extractvalue { ptr, i32 } %6, 0
  call void @__clang_call_terminate(ptr %7) #19
  unreachable
}

; Function Attrs: alwaysinline mustprogress nounwind uwtable
define linkonce_odr hidden noundef ptr @_ZN4ncnn3MatcvPT_IKfEEv(ptr noundef nonnull align 8 dereferenceable(72) %0) #5 comdat align 2 {
  %2 = alloca ptr, align 8
  store ptr %0, ptr %2, align 8, !tbaa !9
  %3 = load ptr, ptr %2, align 8
  %4 = getelementptr inbounds nuw %"class.ncnn::Mat", ptr %3, i32 0, i32 0
  %5 = load ptr, ptr %4, align 8, !tbaa !54
  ret ptr %5
}

; Function Attrs: alwaysinline mustprogress uwtable
define linkonce_odr hidden void @_ZN4ncnn3Mat7channelEi(ptr dead_on_unwind noalias writable sret(%"class.ncnn::Mat") align 8 %0, ptr noundef nonnull align 8 dereferenceable(72) %1, i32 noundef %2) #6 comdat align 2 {
  %4 = alloca ptr, align 8
  %5 = alloca ptr, align 8
  %6 = alloca i32, align 4
  %7 = alloca i1, align 1
  store ptr %0, ptr %4, align 8
  store ptr %1, ptr %5, align 8, !tbaa !9
  store i32 %2, ptr %6, align 4, !tbaa !19
  %8 = load ptr, ptr %5, align 8
  store i1 false, ptr %7, align 1
  %9 = getelementptr inbounds nuw %"class.ncnn::Mat", ptr %8, i32 0, i32 6
  %10 = load i32, ptr %9, align 4, !tbaa !13
  %11 = getelementptr inbounds nuw %"class.ncnn::Mat", ptr %8, i32 0, i32 7
  %12 = load i32, ptr %11, align 8, !tbaa !20
  %13 = getelementptr inbounds nuw %"class.ncnn::Mat", ptr %8, i32 0, i32 8
  %14 = load i32, ptr %13, align 4, !tbaa !59
  %15 = getelementptr inbounds nuw %"class.ncnn::Mat", ptr %8, i32 0, i32 0
  %16 = load ptr, ptr %15, align 8, !tbaa !54
  %17 = getelementptr inbounds nuw %"class.ncnn::Mat", ptr %8, i32 0, i32 10
  %18 = load i64, ptr %17, align 8, !tbaa !60
  %19 = load i32, ptr %6, align 4, !tbaa !19
  %20 = sext i32 %19 to i64
  %21 = mul i64 %18, %20
  %22 = getelementptr inbounds nuw %"class.ncnn::Mat", ptr %8, i32 0, i32 2
  %23 = load i64, ptr %22, align 8, !tbaa !22
  %24 = mul i64 %21, %23
  %25 = getelementptr inbounds nuw i8, ptr %16, i64 %24
  %26 = getelementptr inbounds nuw %"class.ncnn::Mat", ptr %8, i32 0, i32 2
  %27 = load i64, ptr %26, align 8, !tbaa !22
  %28 = getelementptr inbounds nuw %"class.ncnn::Mat", ptr %8, i32 0, i32 3
  %29 = load i32, ptr %28, align 8, !tbaa !56
  %30 = getelementptr inbounds nuw %"class.ncnn::Mat", ptr %8, i32 0, i32 4
  %31 = load ptr, ptr %30, align 8, !tbaa !57
  call void @_ZN4ncnn3MatC2EiiiPvmiPNS_9AllocatorE(ptr noundef nonnull align 8 dereferenceable(72) %0, i32 noundef %10, i32 noundef %12, i32 noundef %14, ptr noundef %25, i64 noundef %27, i32 noundef %29, ptr noundef %31)
  %32 = getelementptr inbounds nuw %"class.ncnn::Mat", ptr %8, i32 0, i32 5
  %33 = load i32, ptr %32, align 8, !tbaa !58
  %34 = sub nsw i32 %33, 1
  %35 = getelementptr inbounds nuw %"class.ncnn::Mat", ptr %0, i32 0, i32 5
  store i32 %34, ptr %35, align 8, !tbaa !58
  %36 = getelementptr inbounds nuw %"class.ncnn::Mat", ptr %8, i32 0, i32 5
  %37 = load i32, ptr %36, align 8, !tbaa !58
  %38 = icmp eq i32 %37, 4
  br i1 %38, label %39, label %48

39:                                               ; preds = %3
  %40 = getelementptr inbounds nuw %"class.ncnn::Mat", ptr %8, i32 0, i32 6
  %41 = load i32, ptr %40, align 4, !tbaa !13
  %42 = sext i32 %41 to i64
  %43 = getelementptr inbounds nuw %"class.ncnn::Mat", ptr %8, i32 0, i32 7
  %44 = load i32, ptr %43, align 8, !tbaa !20
  %45 = sext i32 %44 to i64
  %46 = mul i64 %42, %45
  %47 = getelementptr inbounds nuw %"class.ncnn::Mat", ptr %0, i32 0, i32 10
  store i64 %46, ptr %47, align 8, !tbaa !60
  br label %48

48:                                               ; preds = %39, %3
  store i1 true, ptr %7, align 1
  %49 = load i1, ptr %7, align 1
  br i1 %49, label %51, label %50

50:                                               ; preds = %48
  call void @_ZN4ncnn3MatD2Ev(ptr noundef nonnull align 8 dereferenceable(72) %0) #8
  br label %51

51:                                               ; preds = %50, %48
  ret void
}

; Function Attrs: alwaysinline norecurse nounwind uwtable
define internal void @_ZNK4ncnn7LRN_x8615forward_inplaceERNS_3MatERKNS_6OptionE.omp_outlined(ptr noalias noundef %0, ptr noalias noundef %1, ptr noundef nonnull align 4 dereferenceable(4) %2, ptr noundef nonnull align 8 dereferenceable(72) %3, ptr noundef nonnull align 8 dereferenceable(72) %4, ptr noundef nonnull align 4 dereferenceable(4) %5) #7 personality ptr @__gxx_personality_v0 {
  %7 = alloca ptr, align 8
  %8 = alloca ptr, align 8
  %9 = alloca ptr, align 8
  %10 = alloca ptr, align 8
  %11 = alloca ptr, align 8
  %12 = alloca ptr, align 8
  %13 = alloca ptr, align 8
  %14 = alloca i32, align 4
  %15 = alloca i32, align 4
  %16 = alloca i32, align 4
  %17 = alloca i32, align 4
  %18 = alloca i32, align 4
  %19 = alloca i32, align 4
  %20 = alloca i32, align 4
  %21 = alloca i32, align 4
  %22 = alloca i32, align 4
  %23 = alloca ptr, align 8
  %24 = alloca %"class.ncnn::Mat", align 8
  %25 = alloca ptr, align 8
  %26 = alloca %"class.ncnn::Mat", align 8
  %27 = alloca i32, align 4
  store ptr %0, ptr %7, align 8, !tbaa !50
  store ptr %1, ptr %8, align 8, !tbaa !50
  store ptr %2, ptr %9, align 8, !tbaa !50
  store ptr %3, ptr %10, align 8, !tbaa !9
  store ptr %4, ptr %11, align 8, !tbaa !9
  store ptr %5, ptr %12, align 8, !tbaa !50
  %28 = load ptr, ptr %9, align 8, !tbaa !50
  %29 = load ptr, ptr %10, align 8, !tbaa !9
  %30 = load ptr, ptr %11, align 8, !tbaa !9
  %31 = load ptr, ptr %12, align 8, !tbaa !50
  store ptr %29, ptr %13, align 8
  call void @llvm.lifetime.start.p0(i64 4, ptr %14) #8
  call void @llvm.lifetime.start.p0(i64 4, ptr %15) #8
  %32 = load i32, ptr %28, align 4, !tbaa !19
  store i32 %32, ptr %15, align 4, !tbaa !19
  call void @llvm.lifetime.start.p0(i64 4, ptr %16) #8
  %33 = load i32, ptr %15, align 4, !tbaa !19
  %34 = sub nsw i32 %33, 0
  %35 = sdiv i32 %34, 1
  %36 = sub nsw i32 %35, 1
  store i32 %36, ptr %16, align 4, !tbaa !19
  call void @llvm.lifetime.start.p0(i64 4, ptr %17) #8
  store i32 0, ptr %17, align 4, !tbaa !19
  call void @llvm.lifetime.end.p0(i64 4, ptr %17) #8
  %37 = load i32, ptr %15, align 4, !tbaa !19
  %38 = icmp slt i32 0, %37
  br i1 %38, label %39, label %98

39:                                               ; preds = %6
  call void @llvm.lifetime.start.p0(i64 4, ptr %18) #8
  store i32 0, ptr %18, align 4, !tbaa !19
  call void @llvm.lifetime.start.p0(i64 4, ptr %19) #8
  %40 = load i32, ptr %16, align 4, !tbaa !19
  store i32 %40, ptr %19, align 4, !tbaa !19
  call void @llvm.lifetime.start.p0(i64 4, ptr %20) #8
  store i32 1, ptr %20, align 4, !tbaa !19
  call void @llvm.lifetime.start.p0(i64 4, ptr %21) #8
  store i32 0, ptr %21, align 4, !tbaa !19
  call void @llvm.lifetime.start.p0(i64 4, ptr %22) #8
  %41 = load ptr, ptr %7, align 8
  %42 = load i32, ptr %41, align 4, !tbaa !19
  call void @__kmpc_for_static_init_4(ptr @1, i32 %42, i32 34, ptr %21, ptr %18, ptr %19, ptr %20, i32 1, i32 1)
  %43 = load i32, ptr %19, align 4, !tbaa !19
  %44 = load i32, ptr %16, align 4, !tbaa !19
  %45 = icmp sgt i32 %43, %44
  br i1 %45, label %46, label %48

46:                                               ; preds = %39
  %47 = load i32, ptr %16, align 4, !tbaa !19
  br label %50

48:                                               ; preds = %39
  %49 = load i32, ptr %19, align 4, !tbaa !19
  br label %50

50:                                               ; preds = %48, %46
  %51 = phi i32 [ %47, %46 ], [ %49, %48 ]
  store i32 %51, ptr %19, align 4, !tbaa !19
  %52 = load i32, ptr %18, align 4, !tbaa !19
  store i32 %52, ptr %14, align 4, !tbaa !19
  br label %53

53:                                               ; preds = %91, %50
  %54 = load i32, ptr %14, align 4, !tbaa !19
  %55 = load i32, ptr %19, align 4, !tbaa !19
  %56 = icmp sle i32 %54, %55
  br i1 %56, label %58, label %57

57:                                               ; preds = %53
  br label %94

58:                                               ; preds = %53
  %59 = load i32, ptr %14, align 4, !tbaa !19
  %60 = mul nsw i32 %59, 1
  %61 = add nsw i32 0, %60
  store i32 %61, ptr %22, align 4, !tbaa !19
  call void @llvm.lifetime.start.p0(i64 8, ptr %23) #8
  call void @llvm.lifetime.start.p0(i64 72, ptr %24) #8
  %62 = load ptr, ptr %13, align 8, !tbaa !9
  %63 = load i32, ptr %22, align 4, !tbaa !19
  invoke void @_ZN4ncnn3Mat7channelEi(ptr dead_on_unwind writable sret(%"class.ncnn::Mat") align 8 %24, ptr noundef nonnull align 8 dereferenceable(72) %62, i32 noundef %63)
          to label %64 unwind label %99

64:                                               ; preds = %58
  %65 = invoke noundef ptr @_ZN4ncnn3MatcvPT_IKfEEv(ptr noundef nonnull align 8 dereferenceable(72) %24)
          to label %66 unwind label %99

66:                                               ; preds = %64
  call void @_ZN4ncnn3MatD2Ev(ptr noundef nonnull align 8 dereferenceable(72) %24) #8
  call void @llvm.lifetime.end.p0(i64 72, ptr %24) #8
  store ptr %65, ptr %23, align 8, !tbaa !61
  call void @llvm.lifetime.start.p0(i64 8, ptr %25) #8
  call void @llvm.lifetime.start.p0(i64 72, ptr %26) #8
  %67 = load i32, ptr %22, align 4, !tbaa !19
  invoke void @_ZN4ncnn3Mat7channelEi(ptr dead_on_unwind writable sret(%"class.ncnn::Mat") align 8 %26, ptr noundef nonnull align 8 dereferenceable(72) %30, i32 noundef %67)
          to label %68 unwind label %99

68:                                               ; preds = %66
  %69 = invoke noundef ptr @_ZN4ncnn3MatcvPT_IfEEv(ptr noundef nonnull align 8 dereferenceable(72) %26)
          to label %70 unwind label %99

70:                                               ; preds = %68
  call void @_ZN4ncnn3MatD2Ev(ptr noundef nonnull align 8 dereferenceable(72) %26) #8
  call void @llvm.lifetime.end.p0(i64 72, ptr %26) #8
  store ptr %69, ptr %25, align 8, !tbaa !61
  call void @llvm.lifetime.start.p0(i64 4, ptr %27) #8
  store i32 0, ptr %27, align 4, !tbaa !19
  br label %71

71:                                               ; preds = %86, %70
  %72 = load i32, ptr %27, align 4, !tbaa !19
  %73 = load i32, ptr %31, align 4, !tbaa !19
  %74 = icmp slt i32 %72, %73
  br i1 %74, label %75, label %89

75:                                               ; preds = %71
  %76 = load ptr, ptr %23, align 8, !tbaa !61
  %77 = load float, ptr %76, align 4, !tbaa !45
  %78 = load ptr, ptr %23, align 8, !tbaa !61
  %79 = load float, ptr %78, align 4, !tbaa !45
  %80 = fmul fast float %77, %79
  %81 = load ptr, ptr %25, align 8, !tbaa !61
  store float %80, ptr %81, align 4, !tbaa !45
  %82 = load ptr, ptr %23, align 8, !tbaa !61
  %83 = getelementptr inbounds nuw float, ptr %82, i32 1
  store ptr %83, ptr %23, align 8, !tbaa !61
  %84 = load ptr, ptr %25, align 8, !tbaa !61
  %85 = getelementptr inbounds nuw float, ptr %84, i32 1
  store ptr %85, ptr %25, align 8, !tbaa !61
  br label %86

86:                                               ; preds = %75
  %87 = load i32, ptr %27, align 4, !tbaa !19
  %88 = add nsw i32 %87, 1
  store i32 %88, ptr %27, align 4, !tbaa !19
  br label %71, !llvm.loop !63

89:                                               ; preds = %71
  call void @llvm.lifetime.end.p0(i64 4, ptr %27) #8
  call void @llvm.lifetime.end.p0(i64 8, ptr %25) #8
  call void @llvm.lifetime.end.p0(i64 8, ptr %23) #8
  br label %90

90:                                               ; preds = %89
  br label %91

91:                                               ; preds = %90
  %92 = load i32, ptr %14, align 4, !tbaa !19
  %93 = add nsw i32 %92, 1
  store i32 %93, ptr %14, align 4, !tbaa !19
  br label %53

94:                                               ; preds = %57
  br label %95

95:                                               ; preds = %94
  %96 = load ptr, ptr %7, align 8
  %97 = load i32, ptr %96, align 4, !tbaa !19
  call void @__kmpc_for_static_fini(ptr @1, i32 %97)
  call void @llvm.lifetime.end.p0(i64 4, ptr %22) #8
  call void @llvm.lifetime.end.p0(i64 4, ptr %21) #8
  call void @llvm.lifetime.end.p0(i64 4, ptr %20) #8
  call void @llvm.lifetime.end.p0(i64 4, ptr %19) #8
  call void @llvm.lifetime.end.p0(i64 4, ptr %18) #8
  br label %98

98:                                               ; preds = %95, %6
  call void @llvm.lifetime.end.p0(i64 4, ptr %16) #8
  call void @llvm.lifetime.end.p0(i64 4, ptr %15) #8
  call void @llvm.lifetime.end.p0(i64 4, ptr %14) #8
  ret void

99:                                               ; preds = %68, %66, %64, %58
  %100 = landingpad { ptr, i32 }
          catch ptr null
  %101 = extractvalue { ptr, i32 } %100, 0
  call void @__clang_call_terminate(ptr %101) #19
  unreachable
}