; Function Attrs: alwaysinline norecurse nounwind uwtable
define internal void @_ZNK4ncnn7LRN_x8615forward_inplaceERNS_3MatERKNS_6OptionE.omp_outlined(ptr noalias noundef readonly captures(none) %0, ptr noalias readnone captures(none) %1, ptr noundef nonnull readonly align 4 captures(none) dereferenceable(4) %2, ptr noundef nonnull readonly align 8 captures(none) dereferenceable(72) %3, ptr noundef nonnull readonly align 8 captures(none) dereferenceable(72) %4, ptr noundef nonnull readonly align 4 captures(none) dereferenceable(4) %5) #5 personality ptr @__gxx_personality_v0 {
  %7 = alloca i32, align 4
  %8 = alloca i32, align 4
  %9 = alloca i32, align 4
  %10 = alloca i32, align 4
  %11 = load i32, ptr %2, align 4, !tbaa !15
  %12 = icmp sgt i32 %11, 0
  br i1 %12, label %13, label %41

13:                                               ; preds = %6
  %14 = add nsw i32 %11, -1
  call void @llvm.lifetime.start.p0(i64 4, ptr nonnull %7) #6
  store i32 0, ptr %7, align 4, !tbaa !15
  call void @llvm.lifetime.start.p0(i64 4, ptr nonnull %8) #6
  store i32 %14, ptr %8, align 4, !tbaa !15
  call void @llvm.lifetime.start.p0(i64 4, ptr nonnull %9) #6
  store i32 1, ptr %9, align 4, !tbaa !15
  call void @llvm.lifetime.start.p0(i64 4, ptr nonnull %10) #6
  store i32 0, ptr %10, align 4, !tbaa !15
  %15 = load i32, ptr %0, align 4, !tbaa !15
  call void @__kmpc_for_static_init_4(ptr nonnull @1, i32 %15, i32 34, ptr nonnull %10, ptr nonnull %7, ptr nonnull %8, ptr nonnull %9, i32 1, i32 1)
  %16 = load i32, ptr %8, align 4, !tbaa !15
  %17 = call i32 @llvm.smin.i32(i32 %16, i32 %14)
  store i32 %17, ptr %8, align 4, !tbaa !15
  %18 = load i32, ptr %7, align 4, !tbaa !15
  %.not61 = icmp sgt i32 %18, %17
  br i1 %.not61, label %._crit_edge63, label %.noexc.lr.ph

.noexc.lr.ph:                                     ; preds = %13
  %19 = load ptr, ptr %3, align 8, !tbaa !21, !noalias !57
  %20 = getelementptr inbounds nuw i8, ptr %3, i64 64
  %21 = load i64, ptr %20, align 8, !tbaa !17, !noalias !57
  %22 = getelementptr inbounds nuw i8, ptr %3, i64 16
  %23 = load i64, ptr %22, align 8, !tbaa !16, !noalias !57
  %factor.op.mul = mul i64 %21, %23
  %24 = load ptr, ptr %4, align 8, !tbaa !21, !noalias !60
  %25 = getelementptr inbounds nuw i8, ptr %4, i64 64
  %26 = load i64, ptr %25, align 8, !tbaa !17, !noalias !60
  %27 = getelementptr inbounds nuw i8, ptr %4, i64 16
  %28 = load i64, ptr %27, align 8, !tbaa !16, !noalias !60
  %factor.op.mul64 = mul i64 %26, %28
  %29 = load i32, ptr %5, align 4, !tbaa !15
  %30 = icmp sgt i32 %29, 0
  br i1 %30, label %.noexc.us.preheader, label %._crit_edge63

.noexc.us.preheader:                              ; preds = %.noexc.lr.ph
  %31 = sext i32 %18 to i64
  %32 = add nsw i32 %17, 1
  br label %.noexc.us

.noexc.us:                                        ; preds = %.noexc.us.preheader, %._crit_edge.us
  %indvars.iv = phi i64 [ %31, %.noexc.us.preheader ], [ %indvars.iv.next, %._crit_edge.us ]
  %.reass.us = mul i64 %factor.op.mul, %indvars.iv
  %33 = getelementptr inbounds nuw i8, ptr %19, i64 %.reass.us
  %.reass65.us = mul i64 %factor.op.mul64, %indvars.iv
  %34 = getelementptr inbounds nuw i8, ptr %24, i64 %.reass65.us
  br label %35

35:                                               ; preds = %.noexc.us, %35
  %.060.us = phi i32 [ 0, %.noexc.us ], [ %40, %35 ]
  %.02359.us = phi ptr [ %34, %.noexc.us ], [ %39, %35 ]
  %.02458.us = phi ptr [ %33, %.noexc.us ], [ %38, %35 ]
  %36 = load float, ptr %.02458.us, align 4, !tbaa !43
  %37 = fmul fast float %36, %36
  store float %37, ptr %.02359.us, align 4, !tbaa !43
  %38 = getelementptr inbounds nuw i8, ptr %.02458.us, i64 4
  %39 = getelementptr inbounds nuw i8, ptr %.02359.us, i64 4
  %40 = add nuw nsw i32 %.060.us, 1
  %exitcond.not = icmp eq i32 %40, %29
  br i1 %exitcond.not, label %._crit_edge.us, label %35, !llvm.loop !63

._crit_edge.us:                                   ; preds = %35
  %indvars.iv.next = add nsw i64 %indvars.iv, 1
  %lftr.wideiv = trunc i64 %indvars.iv.next to i32
  %exitcond68.not = icmp eq i32 %32, %lftr.wideiv
  br i1 %exitcond68.not, label %._crit_edge63, label %.noexc.us

._crit_edge63:                                    ; preds = %._crit_edge.us, %.noexc.lr.ph, %13
  call void @__kmpc_for_static_fini(ptr nonnull @1, i32 %15)
  call void @llvm.lifetime.end.p0(i64 4, ptr nonnull %10) #6
  call void @llvm.lifetime.end.p0(i64 4, ptr nonnull %9) #6
  call void @llvm.lifetime.end.p0(i64 4, ptr nonnull %8) #6
  call void @llvm.lifetime.end.p0(i64 4, ptr nonnull %7) #6
  br label %41

41:                                               ; preds = %._crit_edge63, %6
  ret void
}